; Function Attrs: nounwind uwtable
define dso_local ptr @GetRelationPath(i32 noundef %0, i32 noundef %1, i32 noundef %2, i32 noundef %3, i32 noundef %4) local_unnamed_addr #0 {
  switch i32 %1, label %32 [
    i32 1664, label %6
    i32 1663, label %14
  ]

6:                                                ; preds = %5
  %.not47 = icmp eq i32 %4, 0
  br i1 %.not47, label %12, label %7

7:                                                ; preds = %6
  %8 = sext i32 %4 to i64
  %9 = getelementptr inbounds [4 x ptr], ptr @forkNames, i64 0, i64 %8
  %10 = load ptr, ptr %9, align 8
  %11 = tail call ptr (ptr, ...) @psprintf(ptr noundef nonnull @.str.12, i32 noundef %2, ptr noundef %10) #8
  br label %50

12:                                               ; preds = %6
  %13 = tail call ptr (ptr, ...) @psprintf(ptr noundef nonnull @.str.13, i32 noundef %2) #8
  br label %50

14:                                               ; preds = %5
  %15 = icmp eq i32 %3, -1
  %.not46 = icmp eq i32 %4, 0
  br i1 %15, label %16, label %24

16:                                               ; preds = %14
  br i1 %.not46, label %22, label %17

17:                                               ; preds = %16
  %18 = sext i32 %4 to i64
  %19 = getelementptr inbounds [4 x ptr], ptr @forkNames, i64 0, i64 %18
  %20 = load ptr, ptr %19, align 8
  %21 = tail call ptr (ptr, ...) @psprintf(ptr noundef nonnull @.str.14, i32 noundef %0, i32 noundef %2, ptr noundef %20) #8
  br label %50

22:                                               ; preds = %16
  %23 = tail call ptr (ptr, ...) @psprintf(ptr noundef nonnull @.str.15, i32 noundef %0, i32 noundef %2) #8
  br label %50

24:                                               ; preds = %14
  br i1 %.not46, label %30, label %25

25:                                               ; preds = %24
  %26 = sext i32 %4 to i64
  %27 = getelementptr inbounds [4 x ptr], ptr @forkNames, i64 0, i64 %26
  %28 = load ptr, ptr %27, align 8
  %29 = tail call ptr (ptr, ...) @psprintf(ptr noundef nonnull @.str.16, i32 noundef %0, i32 noundef %3, i32 noundef %2, ptr noundef %28) #8
  br label %50

30:                                               ; preds = %24
  %31 = tail call ptr (ptr, ...) @psprintf(ptr noundef nonnull @.str.17, i32 noundef %0, i32 noundef %3, i32 noundef %2) #8
  br label %50

32:                                               ; preds = %5
  %33 = icmp eq i32 %3, -1
  %.not44 = icmp eq i32 %4, 0
  br i1 %33, label %34, label %42

34:                                               ; preds = %32
  br i1 %.not44, label %40, label %35

35:                                               ; preds = %34
  %36 = sext i32 %4 to i64
  %37 = getelementptr inbounds [4 x ptr], ptr @forkNames, i64 0, i64 %36
  %38 = load ptr, ptr %37, align 8
  %39 = tail call ptr (ptr, ...) @psprintf(ptr noundef nonnull @.str.18, ptr noundef nonnull @.str.10, i32 noundef %1, ptr noundef nonnull @.str.11, i32 noundef %0, i32 noundef %2, ptr noundef %38) #8
  br label %50

40:                                               ; preds = %34
  %41 = tail call ptr (ptr, ...) @psprintf(ptr noundef nonnull @.str.19, ptr noundef nonnull @.str.10, i32 noundef %1, ptr noundef nonnull @.str.11, i32 noundef %0, i32 noundef %2) #8
  br label %50

42:                                               ; preds = %32
  br i1 %.not44, label %48, label %43

43:                                               ; preds = %42
  %44 = sext i32 %4 to i64
  %45 = getelementptr inbounds [4 x ptr], ptr @forkNames, i64 0, i64 %44
  %46 = load ptr, ptr %45, align 8
  %47 = tail call ptr (ptr, ...) @psprintf(ptr noundef nonnull @.str.20, ptr noundef nonnull @.str.10, i32 noundef %1, ptr noundef nonnull @.str.11, i32 noundef %0, i32 noundef %3, i32 noundef %2, ptr noundef %46) #8
  br label %50

48:                                               ; preds = %42
  %49 = tail call ptr (ptr, ...) @psprintf(ptr noundef nonnull @.str.21, ptr noundef nonnull @.str.10, i32 noundef %1, ptr noundef nonnull @.str.11, i32 noundef %0, i32 noundef %3, i32 noundef %2) #8
  br label %50

50:                                               ; preds = %25, %30, %17, %22, %43, %48, %35, %40, %7, %12
  %.0 = phi ptr [ %11, %7 ], [ %13, %12 ], [ %21, %17 ], [ %23, %22 ], [ %29, %25 ], [ %31, %30 ], [ %39, %35 ], [ %41, %40 ], [ %47, %43 ], [ %49, %48 ]
  ret ptr %.0
}